(dp1
S'prev_acc'
p2
F0.3468643961291944
sS'epoch'
p3
I5
sS'args'
p4
ccopy_reg
_reconstructor
p5
(cargparse
Namespace
p6
c__builtin__
object
p7
NtRp8
(dp9
S'max_dev'
p10
I1000
sS'dropout_rate'
p11
F0.20000000000000001
sS'embedding_size'
p12
I200
sS'vocab_size'
p13
I1498
sS'vocab_file'
p14
S'data/bobsue.voc.txt'
p15
sS'num_epoches'
p16
I20
sS'start_from'
p17
S'att_seq2seq'
p18
sS'eval_epoch'
p19
I1
sS'num_layers'
p20
I1
sS'test_file'
p21
S'data/bobsue.seq2seq.test.tsv'
p22
sS'optimizer'
p23
S'Adam'
p24
sS'pre_trained'
p25
NsS'bidir'
p26
I01
sS'checkpoint_path'
p27
S'att_seq2seq'
p28
sS'test_pos_file'
p29
NsS'grad_clipping'
p30
I1
sS'train_file'
p31
S'data/bobsue.seq2seq.train.tsv'
p32
sS'model_file'
p33
S'model.th'
p34
sS'num_dev'
p35
I750
sS'embedding_file'
p36
NsS'criterion'
p37
S'LanguageModelCriterion'
p38
sS'hidden_size'
p39
I200
sS'rnn_type'
p40
S'gru'
p41
sS'check_att'
p42
I00
sS'random_seed'
p43
I1013
sS'load_best'
p44
I0
sS'learning_rate'
p45
F0.01
sS'num_train'
p46
I6036
sS'att_func'
p47
S'bilinear'
p48
sS'pos_embedding_size'
p49
I30
sS'batch_size'
p50
I128
sS'num_sampled'
p51
I10
sS'dev_file'
p52
S'data/bobsue.seq2seq.dev.tsv'
p53
sS'max_train'
p54
I10000
sS'att_type'
p55
S'vanilla'
p56
sS'relabeling'
p57
I01
sS'test_only'
p58
I00
sS'train_pos_file'
p59
NsS'use_cuda'
p60
I00
sS'debug'
p61
I00
sS'model'
p62
S'AttentionEncoderDecoderModel'
p63
sS'log_file'
p64
NsS'dev_pos_file'
p65
NsbsS'best_acc'
p66
F0.35742113862008296
sg45
F0.0050000000000000001
s.